; Function Attrs: mustprogress nofree norecurse nosync nounwind willreturn memory(none) uwtable
define hidden noundef ptr @_ZN19OpenColorIO_v2_5dev23AVX512GetLut1DApplyFuncENS_8BitDepthES0_(i32 noundef %0, i32 noundef %1) local_unnamed_addr #3 {
  %cond = icmp eq i32 %0, 8
  br i1 %cond, label %3, label %_ZN19OpenColorIO_v2_5dev12_GLOBAL__N_120GetConvertInBitDepthILNS_8BitDepthE8EEEPFvPKfS4_S4_iPKvPvlES2_.exit

3:                                                ; preds = %2
  %switch.tableidx = add i32 %1, -1
  %4 = icmp ult i32 %switch.tableidx, 8
  br i1 %4, label %switch.lookup, label %_ZN19OpenColorIO_v2_5dev12_GLOBAL__N_120GetConvertInBitDepthILNS_8BitDepthE8EEEPFvPKfS4_S4_iPKvPvlES2_.exit

switch.lookup:                                    ; preds = %3
  %5 = zext nneg i32 %switch.tableidx to i64
  %switch.gep = getelementptr inbounds nuw [8 x ptr], ptr @switch.table._ZN19OpenColorIO_v2_5dev23AVX512GetLut1DApplyFuncENS_8BitDepthES0_, i64 0, i64 %5
  %switch.load = load ptr, ptr %switch.gep, align 8
  br label %_ZN19OpenColorIO_v2_5dev12_GLOBAL__N_120GetConvertInBitDepthILNS_8BitDepthE8EEEPFvPKfS4_S4_iPKvPvlES2_.exit

_ZN19OpenColorIO_v2_5dev12_GLOBAL__N_120GetConvertInBitDepthILNS_8BitDepthE8EEEPFvPKfS4_S4_iPKvPvlES2_.exit: ; preds = %3, %switch.lookup, %2
  %.0 = phi ptr [ null, %2 ], [ %switch.load, %switch.lookup ], [ null, %3 ]
  ret ptr %.0
}